target datalayout = "e-m:e-p270:32:32-p271:32:32-p272:64:64-i64:64-i128:128-f80:128-n8:16:32:64-S128"
target triple = "x86_64-pc-linux-gnu"

%struct._object = type { i64, ptr }

@.str.8 = private unnamed_addr constant [121 x i8] c"nanobind::detail::incref_check(): attempted to change the reference count of a Python object while the GIL was not held.\00", align 1

; Function Attrs: inlinehint mustprogress nounwind uwtable
define internal void @_ZL10_Py_INCREFP7_object(ptr noundef %0) #9 {
  %2 = alloca ptr, align 8
  store ptr %0, ptr %2, align 8
  %3 = load ptr, ptr %2, align 8
  %4 = getelementptr inbounds nuw %struct._object, ptr %3, i32 0, i32 0
  %5 = load i64, ptr %4, align 8
  %6 = add nsw i64 %5, 1
  store i64 %6, ptr %4, align 8
  ret void
}

; Function Attrs: mustprogress nounwind uwtable
define void @_ZN8nanobind6detail14incref_checkedEP7_object(ptr noundef %0) #4 personality ptr @__gxx_personality_v0 {
  %2 = alloca ptr, align 8
  store ptr %0, ptr %2, align 8
  %3 = load ptr, ptr %2, align 8
  %4 = icmp ne ptr %3, null
  br i1 %4, label %6, label %5

5:                                                ; preds = %1
  br label %13

6:                                                ; preds = %1
  %7 = invoke i32 @PyGILState_Check()
          to label %8 unwind label %14

8:                                                ; preds = %6
  %9 = icmp ne i32 %7, 0
  br i1 %9, label %11, label %10

10:                                               ; preds = %8
  call void (ptr, ...) @_ZN8nanobind6detail4failEPKcz(ptr noundef @.str.8) #22
  unreachable

11:                                               ; preds = %8
  %12 = load ptr, ptr %2, align 8
  invoke void @_ZL10_Py_INCREFP7_object(ptr noundef %12)
          to label %13 unwind label %14

13:                                               ; preds = %5, %11
  ret void

14:                                               ; preds = %11, %6
  %15 = landingpad { ptr, i32 }
          catch ptr null
  %16 = extractvalue { ptr, i32 } %15, 0
  call void @__clang_call_terminate(ptr %16) #22
  unreachable
}